; Function Attrs: mustprogress nofree norecurse nosync nounwind willreturn memory(argmem: readwrite) uwtable
define internal noundef ptr @My_Py_INCREF(ptr readnone captures(none) %0, ptr noundef returned %1) #5 {
  %3 = load i32, ptr %1, align 8, !tbaa !11
  %4 = icmp slt i32 %3, 0
  br i1 %4, label %Py_INCREF.exit3, label %Py_INCREF.exit

Py_INCREF.exit:                                   ; preds = %2
  %5 = add nuw i32 %3, 1
  store i32 %5, ptr %1, align 8, !tbaa !11
  %6 = icmp slt i32 %5, 0
  br i1 %6, label %Py_INCREF.exit3, label %7

7:                                                ; preds = %Py_INCREF.exit
  %8 = add nuw i32 %3, 2
  store i32 %8, ptr %1, align 8, !tbaa !11
  br label %Py_INCREF.exit3

Py_INCREF.exit3:                                  ; preds = %2, %Py_INCREF.exit, %7
  ret ptr %1
}